target datalayout = "e-m:e-p270:32:32-p271:32:32-p272:64:64-i64:64-i128:128-f80:128-n8:16:32:64-S128"
target triple = "x86_64-pc-linux-gnu"

%struct.global_State = type { ptr, ptr, %struct.GCState, %struct.GCstr, i8, i8, i8, i8, %struct.StrInternState, i32, %struct.GCRef, %struct.SBuf, %union.TValue, %union.TValue, %struct.Node, %union.TValue, %struct.GCupval, i32, i32, ptr, ptr, ptr, i32, i32, %struct.GCRef, %struct.MRef, %struct.MRef, %struct.PRNGState, [39 x %struct.GCRef] }
%struct.GCState = type { i64, i64, i8, i8, i8, i8, i32, %struct.GCRef, %struct.MRef, %struct.GCRef, %struct.GCRef, %struct.GCRef, %struct.GCRef, i64, i64, i32, i32, %struct.MRef }
%struct.GCstr = type { %struct.GCRef, i8, i8, i8, i8, i32, i32, i32 }
%struct.StrInternState = type { ptr, i32, i32, i32, i8, i8, i8, i8, i64 }
%struct.SBuf = type { ptr, ptr, ptr, %struct.MRef }
%struct.Node = type { %union.TValue, %union.TValue, %struct.MRef }
%union.TValue = type { i64 }
%struct.GCupval = type { %struct.GCRef, i8, i8, i8, i8, %union.anon, %struct.MRef, i32 }
%union.anon = type { %struct.anon.1 }
%struct.anon.1 = type { %struct.GCRef, %struct.GCRef }
%struct.GCRef = type { i64 }
%struct.MRef = type { i64 }
%struct.PRNGState = type { [4 x i64] }
%struct.lua_State = type { %struct.GCRef, i8, i8, i8, i8, %struct.MRef, %struct.GCRef, ptr, ptr, %struct.MRef, %struct.MRef, %struct.GCRef, %struct.GCRef, ptr, i32 }

; Function Attrs: nounwind uwtable
define hidden ptr @lj_mem_realloc(ptr noundef %0, ptr noundef %1, i64 noundef %2, i64 noundef %3) #0 {
  %5 = alloca ptr, align 8
  %6 = alloca ptr, align 8
  %7 = alloca i64, align 8
  %8 = alloca i64, align 8
  %9 = alloca ptr, align 8
  store ptr %0, ptr %5, align 8, !tbaa !37
  store ptr %1, ptr %6, align 8, !tbaa !77
  store i64 %2, ptr %7, align 8, !tbaa !11
  store i64 %3, ptr %8, align 8, !tbaa !11
  call void @llvm.lifetime.start.p0(i64 8, ptr %9) #7
  %10 = load ptr, ptr %5, align 8, !tbaa !37
  %11 = getelementptr inbounds nuw %struct.lua_State, ptr %10, i32 0, i32 5
  %12 = getelementptr inbounds nuw %struct.MRef, ptr %11, i32 0, i32 0
  %13 = load i64, ptr %12, align 8, !tbaa !39
  %14 = inttoptr i64 %13 to ptr
  store ptr %14, ptr %9, align 8, !tbaa !4
  %15 = load ptr, ptr %9, align 8, !tbaa !4
  %16 = getelementptr inbounds nuw %struct.global_State, ptr %15, i32 0, i32 0
  %17 = load ptr, ptr %16, align 8, !tbaa !113
  %18 = load ptr, ptr %9, align 8, !tbaa !4
  %19 = getelementptr inbounds nuw %struct.global_State, ptr %18, i32 0, i32 1
  %20 = load ptr, ptr %19, align 8, !tbaa !114
  %21 = load ptr, ptr %6, align 8, !tbaa !77
  %22 = load i64, ptr %7, align 8, !tbaa !11
  %23 = load i64, ptr %8, align 8, !tbaa !11
  %24 = call ptr %17(ptr noundef %20, ptr noundef %21, i64 noundef %22, i64 noundef %23)
  store ptr %24, ptr %6, align 8, !tbaa !77
  %25 = load ptr, ptr %6, align 8, !tbaa !77
  %26 = icmp eq ptr %25, null
  br i1 %26, label %27, label %32

27:                                               ; preds = %4
  %28 = load i64, ptr %8, align 8, !tbaa !11
  %29 = icmp ugt i64 %28, 0
  br i1 %29, label %30, label %32

30:                                               ; preds = %27
  %31 = load ptr, ptr %5, align 8, !tbaa !37
  call void @lj_err_mem(ptr noundef %31) #8
  unreachable

32:                                               ; preds = %27, %4
  %33 = load ptr, ptr %9, align 8, !tbaa !4
  %34 = getelementptr inbounds nuw %struct.global_State, ptr %33, i32 0, i32 2
  %35 = getelementptr inbounds nuw %struct.GCState, ptr %34, i32 0, i32 0
  %36 = load i64, ptr %35, align 8, !tbaa !82
  %37 = load i64, ptr %7, align 8, !tbaa !11
  %38 = sub i64 %36, %37
  %39 = load i64, ptr %8, align 8, !tbaa !11
  %40 = add i64 %38, %39
  %41 = load ptr, ptr %9, align 8, !tbaa !4
  %42 = getelementptr inbounds nuw %struct.global_State, ptr %41, i32 0, i32 2
  %43 = getelementptr inbounds nuw %struct.GCState, ptr %42, i32 0, i32 0
  store i64 %40, ptr %43, align 8, !tbaa !82
  %44 = load ptr, ptr %6, align 8, !tbaa !77
  call void @llvm.lifetime.end.p0(i64 8, ptr %9) #7
  ret ptr %44
}