; Function Attrs: nounwind uwtable
define hidden ptr @lj_mem_realloc(ptr noundef %0, ptr noundef %1, i64 noundef %2, i64 noundef %3) local_unnamed_addr #0 {
  %5 = getelementptr inbounds nuw i8, ptr %0, i64 16
  %6 = load i64, ptr %5, align 8, !tbaa !30
  %7 = inttoptr i64 %6 to ptr
  %8 = load ptr, ptr %7, align 8, !tbaa !108
  %9 = getelementptr inbounds nuw i8, ptr %7, i64 8
  %10 = load ptr, ptr %9, align 8, !tbaa !109
  %11 = tail call ptr %8(ptr noundef %10, ptr noundef %1, i64 noundef %2, i64 noundef %3) #8
  %12 = icmp eq ptr %11, null
  %13 = icmp ne i64 %3, 0
  %or.cond = and i1 %13, %12
  br i1 %or.cond, label %14, label %15

14:                                               ; preds = %4
  tail call void @lj_err_mem(ptr noundef nonnull %0) #9
  unreachable

15:                                               ; preds = %4
  %16 = getelementptr inbounds nuw i8, ptr %7, i64 16
  %17 = load i64, ptr %16, align 8, !tbaa !68
  %18 = sub i64 %3, %2
  %19 = add i64 %18, %17
  store i64 %19, ptr %16, align 8, !tbaa !68
  ret ptr %11
}